target datalayout = "e-m:e-p270:32:32-p271:32:32-p272:64:64-i64:64-i128:128-f80:128-n8:16:32:64-S128"
target triple = "x86_64-pc-linux-gnu"

%struct.usershape_s = type { %struct._dtlink_s, ptr, i32, i8, i8, ptr, i32, ptr, i32, i32, i32, i32, i32, ptr, i64, ptr }
%struct._dtlink_s = type { ptr, %union.anon }
%union.anon = type { ptr }

; Function Attrs: nounwind uwtable
define internal zeroext i1 @get_int_lsb_first(ptr noundef %0, i64 noundef %1, ptr noundef %2) #0 {
  %4 = alloca i1, align 1
  %5 = alloca ptr, align 8
  %6 = alloca i64, align 8
  %7 = alloca ptr, align 8
  %8 = alloca i32, align 4
  %9 = alloca i32, align 4
  %10 = alloca i64, align 8
  store ptr %0, ptr %5, align 8
  store i64 %1, ptr %6, align 8
  store ptr %2, ptr %7, align 8
  store i32 0, ptr %9, align 4
  store i64 0, ptr %10, align 8
  br label %11

11:                                               ; preds = %30, %3
  %12 = load i64, ptr %10, align 8
  %13 = load i64, ptr %6, align 8
  %14 = icmp ult i64 %12, %13
  br i1 %14, label %15, label %33

15:                                               ; preds = %11
  %16 = load ptr, ptr %5, align 8
  %17 = call i32 @fgetc(ptr noundef %16)
  store i32 %17, ptr %8, align 4
  %18 = load ptr, ptr %5, align 8
  %19 = call i32 @feof(ptr noundef %18) #13
  %20 = icmp ne i32 %19, 0
  br i1 %20, label %21, label %22

21:                                               ; preds = %15
  store i1 false, ptr %4, align 1
  br label %40

22:                                               ; preds = %15
  %23 = load i32, ptr %8, align 4
  %24 = load i64, ptr %10, align 8
  %25 = mul i64 8, %24
  %26 = trunc i64 %25 to i32
  %27 = shl i32 %23, %26
  %28 = load i32, ptr %9, align 4
  %29 = or i32 %28, %27
  store i32 %29, ptr %9, align 4
  br label %30

30:                                               ; preds = %22
  %31 = load i64, ptr %10, align 8
  %32 = add i64 %31, 1
  store i64 %32, ptr %10, align 8
  br label %11

33:                                               ; preds = %11
  %34 = load i32, ptr %9, align 4
  %35 = icmp ugt i32 %34, 2147483647
  br i1 %35, label %36, label %37

36:                                               ; preds = %33
  store i1 false, ptr %4, align 1
  br label %40

37:                                               ; preds = %33
  %38 = load i32, ptr %9, align 4
  %39 = load ptr, ptr %7, align 8
  store i32 %38, ptr %39, align 4
  store i1 true, ptr %4, align 1
  br label %40

40:                                               ; preds = %37, %36, %21
  %41 = load i1, ptr %4, align 1
  ret i1 %41
}

; Function Attrs: nounwind uwtable
define internal void @bmp_size(ptr noundef %0) #0 {
  %2 = alloca ptr, align 8
  %3 = alloca i32, align 4
  %4 = alloca i32, align 4
  %5 = alloca i32, align 4
  %6 = alloca i32, align 4
  store ptr %0, ptr %2, align 8
  %7 = load ptr, ptr %2, align 8
  %8 = getelementptr inbounds %struct.usershape_s, ptr %7, i32 0, i32 12
  store i32 0, ptr %8, align 8
  %9 = load ptr, ptr %2, align 8
  %10 = getelementptr inbounds %struct.usershape_s, ptr %9, i32 0, i32 5
  %11 = load ptr, ptr %10, align 8
  %12 = call i32 @fseek(ptr noundef %11, i64 noundef 16, i32 noundef 0)
  %13 = load ptr, ptr %2, align 8
  %14 = getelementptr inbounds %struct.usershape_s, ptr %13, i32 0, i32 5
  %15 = load ptr, ptr %14, align 8
  %16 = call zeroext i1 @get_int_lsb_first(ptr noundef %15, i64 noundef 2, ptr noundef %3)
  br i1 %16, label %17, label %45

17:                                               ; preds = %1
  %18 = load ptr, ptr %2, align 8
  %19 = getelementptr inbounds %struct.usershape_s, ptr %18, i32 0, i32 5
  %20 = load ptr, ptr %19, align 8
  %21 = call zeroext i1 @get_int_lsb_first(ptr noundef %20, i64 noundef 2, ptr noundef %4)
  br i1 %21, label %22, label %45

22:                                               ; preds = %17
  %23 = load ptr, ptr %2, align 8
  %24 = getelementptr inbounds %struct.usershape_s, ptr %23, i32 0, i32 5
  %25 = load ptr, ptr %24, align 8
  %26 = call zeroext i1 @get_int_lsb_first(ptr noundef %25, i64 noundef 2, ptr noundef %5)
  br i1 %26, label %27, label %45

27:                                               ; preds = %22
  %28 = load ptr, ptr %2, align 8
  %29 = getelementptr inbounds %struct.usershape_s, ptr %28, i32 0, i32 5
  %30 = load ptr, ptr %29, align 8
  %31 = call zeroext i1 @get_int_lsb_first(ptr noundef %30, i64 noundef 2, ptr noundef %6)
  br i1 %31, label %32, label %45

32:                                               ; preds = %27
  %33 = load i32, ptr %3, align 4
  %34 = shl i32 %33, 16
  %35 = load i32, ptr %4, align 4
  %36 = or i32 %34, %35
  %37 = load ptr, ptr %2, align 8
  %38 = getelementptr inbounds %struct.usershape_s, ptr %37, i32 0, i32 10
  store i32 %36, ptr %38, align 8
  %39 = load i32, ptr %5, align 4
  %40 = shl i32 %39, 16
  %41 = load i32, ptr %6, align 4
  %42 = or i32 %40, %41
  %43 = load ptr, ptr %2, align 8
  %44 = getelementptr inbounds %struct.usershape_s, ptr %43, i32 0, i32 11
  store i32 %42, ptr %44, align 4
  br label %45

45:                                               ; preds = %32, %27, %22, %17, %1
  ret void
}