; Function Attrs: nofree nounwind uwtable
define internal fastcc void @bmp_size(ptr noundef captures(none) initializes((72, 76)) %0) unnamed_addr #5 {
  %2 = getelementptr inbounds nuw i8, ptr %0, i64 72
  store i32 0, ptr %2, align 8
  %3 = getelementptr inbounds nuw i8, ptr %0, i64 32
  %4 = load ptr, ptr %3, align 8
  %5 = tail call i32 @fseek(ptr noundef %4, i64 noundef 16, i32 noundef 0)
  %6 = load ptr, ptr %3, align 8
  br label %7

7:                                                ; preds = %10, %1
  %.015.i = phi i64 [ 0, %1 ], [ %14, %10 ]
  %.01114.i = phi i32 [ 0, %1 ], [ %13, %10 ]
  %8 = tail call i32 @fgetc(ptr noundef %6)
  %9 = tail call i32 @feof(ptr noundef %6) #21
  %.not.i = icmp eq i32 %9, 0
  br i1 %.not.i, label %10, label %get_int_lsb_first.exit.thread

10:                                               ; preds = %7
  %.0.tr.i = trunc i64 %.015.i to i32
  %11 = shl i32 %.0.tr.i, 3
  %12 = shl i32 %8, %11
  %13 = or i32 %12, %.01114.i
  %14 = add nuw nsw i64 %.015.i, 1
  %exitcond.not.i = icmp eq i64 %14, 2
  br i1 %exitcond.not.i, label %15, label %7

15:                                               ; preds = %10
  %16 = icmp slt i32 %13, 0
  br i1 %16, label %get_int_lsb_first.exit.thread, label %get_int_lsb_first.exit

get_int_lsb_first.exit:                           ; preds = %15
  %17 = load ptr, ptr %3, align 8
  br label %18

18:                                               ; preds = %21, %get_int_lsb_first.exit
  %.015.i8 = phi i64 [ 0, %get_int_lsb_first.exit ], [ %25, %21 ]
  %.01114.i9 = phi i32 [ 0, %get_int_lsb_first.exit ], [ %24, %21 ]
  %19 = tail call i32 @fgetc(ptr noundef %17)
  %20 = tail call i32 @feof(ptr noundef %17) #21
  %.not.i10 = icmp eq i32 %20, 0
  br i1 %.not.i10, label %21, label %get_int_lsb_first.exit.thread

21:                                               ; preds = %18
  %.0.tr.i12 = trunc i64 %.015.i8 to i32
  %22 = shl i32 %.0.tr.i12, 3
  %23 = shl i32 %19, %22
  %24 = or i32 %23, %.01114.i9
  %25 = add nuw nsw i64 %.015.i8, 1
  %exitcond.not.i13 = icmp eq i64 %25, 2
  br i1 %exitcond.not.i13, label %26, label %18

26:                                               ; preds = %21
  %27 = icmp slt i32 %24, 0
  br i1 %27, label %get_int_lsb_first.exit.thread, label %get_int_lsb_first.exit14

get_int_lsb_first.exit14:                         ; preds = %26
  %28 = load ptr, ptr %3, align 8
  br label %29

29:                                               ; preds = %32, %get_int_lsb_first.exit14
  %.015.i15 = phi i64 [ 0, %get_int_lsb_first.exit14 ], [ %36, %32 ]
  %.01114.i16 = phi i32 [ 0, %get_int_lsb_first.exit14 ], [ %35, %32 ]
  %30 = tail call i32 @fgetc(ptr noundef %28)
  %31 = tail call i32 @feof(ptr noundef %28) #21
  %.not.i17 = icmp eq i32 %31, 0
  br i1 %.not.i17, label %32, label %get_int_lsb_first.exit.thread

32:                                               ; preds = %29
  %.0.tr.i19 = trunc i64 %.015.i15 to i32
  %33 = shl i32 %.0.tr.i19, 3
  %34 = shl i32 %30, %33
  %35 = or i32 %34, %.01114.i16
  %36 = add nuw nsw i64 %.015.i15, 1
  %exitcond.not.i20 = icmp eq i64 %36, 2
  br i1 %exitcond.not.i20, label %37, label %29

37:                                               ; preds = %32
  %38 = icmp slt i32 %35, 0
  br i1 %38, label %get_int_lsb_first.exit.thread, label %get_int_lsb_first.exit21

get_int_lsb_first.exit21:                         ; preds = %37
  %39 = load ptr, ptr %3, align 8
  br label %40

40:                                               ; preds = %43, %get_int_lsb_first.exit21
  %.015.i22 = phi i64 [ 0, %get_int_lsb_first.exit21 ], [ %47, %43 ]
  %.01114.i23 = phi i32 [ 0, %get_int_lsb_first.exit21 ], [ %46, %43 ]
  %41 = tail call i32 @fgetc(ptr noundef %39)
  %42 = tail call i32 @feof(ptr noundef %39) #21
  %.not.i24 = icmp eq i32 %42, 0
  br i1 %.not.i24, label %43, label %get_int_lsb_first.exit.thread

43:                                               ; preds = %40
  %.0.tr.i26 = trunc i64 %.015.i22 to i32
  %44 = shl i32 %.0.tr.i26, 3
  %45 = shl i32 %41, %44
  %46 = or i32 %45, %.01114.i23
  %47 = add nuw nsw i64 %.015.i22, 1
  %exitcond.not.i27 = icmp eq i64 %47, 2
  br i1 %exitcond.not.i27, label %48, label %40

48:                                               ; preds = %43
  %49 = icmp slt i32 %46, 0
  br i1 %49, label %get_int_lsb_first.exit.thread, label %get_int_lsb_first.exit28

get_int_lsb_first.exit28:                         ; preds = %48
  %50 = shl i32 %13, 16
  %51 = or i32 %24, %50
  %52 = getelementptr inbounds nuw i8, ptr %0, i64 64
  store i32 %51, ptr %52, align 8
  %53 = shl i32 %35, 16
  %54 = or i32 %46, %53
  %55 = getelementptr inbounds nuw i8, ptr %0, i64 68
  store i32 %54, ptr %55, align 4
  br label %get_int_lsb_first.exit.thread

get_int_lsb_first.exit.thread:                    ; preds = %7, %18, %29, %40, %48, %37, %26, %15, %get_int_lsb_first.exit28
  ret void
}